(dp1
(I-1
I0
I1
I4
tp2
(dp3
S'GO_STRAIGHT'
p4
I0
sS'GO_LEFT'
p5
F-800
sS'GO_RIGHT'
p6
F-2.699384580183926
ss(I-1
I0
I-1
I1
tp7
(dp8
g4
I0
sg5
F-800
sg6
F35.628249573608528
ss(I-1
I-1
I0
I4
tp9
(dp10
g4
F12.809287839887814
sg5
F-960
sg6
F-998.39999999999998
ss(I0
I1
I-1
I4
tp11
(dp12
g4
I0
sg5
F-4.6733164592067062
sg6
F113.87626246236633
ss(I-1
I0
I1
I1
tp13
(dp14
g4
I0
sg5
F-800
sg6
F1.791924871432762
ss(I0
I1
I1
I2
tp15
(dp16
g4
I0
sg5
F6.739218059086622
sg6
I0
ss(I1
I-1
I0
I3
tp17
(dp18
g4
I0
sg5
F116.95789241501024
sg6
I0
ss(I-1
I0
I0
I3
tp19
(dp20
g4
F-5.4094306419400553
sg5
F-999.99999996985343
sg6
F0.62719950513973011
ss(I-1
I-1
I0
I2
tp21
(dp22
g4
F26.427394831467613
sg5
F-800
sg6
F-800
ss(I1
I-1
I0
I4
tp23
(dp24
g4
I0
sg5
F132.54308565604717
sg6
I0
ss(I0
I-1
I-1
I4
tp25
(dp26
g4
I0
sg5
F19.563317214032764
sg6
I0
ss(I-1
I1
I-1
I3
tp27
(dp28
g4
I0
sg5
F-800
sg6
I0
ss(I0
I0
I1
I4
tp29
(dp30
g4
F163.98871909152246
sg5
F24.159305046526228
sg6
F4.4299627679202764
ss(I0
I-1
I1
I3
tp31
(dp32
g4
I0
sg5
F43.236263022577731
sg6
I0
ss(I1
I0
I0
I2
tp33
(dp34
g4
I0
sg5
F255.47424136048733
sg6
F17.767651030648111
ss(I0
I0
I1
I1
tp35
(dp36
g4
F271.90318598037015
sg5
F-1.9255888078902161
sg6
F-3.3731893175331495
ss(I-1
I-1
I-1
I3
tp37
(dp38
g4
I0
sg5
F-800
sg6
F-800
ss(I0
I-1
I1
I2
tp39
(dp40
g4
F172.58289379583925
sg5
I0
sg6
I0
ss(I1
I0
I1
I2
tp41
(dp42
g4
I0
sg5
F115.06079560392546
sg6
I0
ss(I0
I0
I1
I2
tp43
(dp44
g4
I0
sg5
F-1.5734158219412131
sg6
F23.564063467339668
ss(I0
I-1
I0
I2
tp45
(dp46
g4
F102.06269574083761
sg5
F3.7622641950537798
sg6
F-999.99999911526402
ss(I0
I0
I0
I2
tp47
(dp48
g4
F1.9606511747397968
sg5
F4.3614933791937514
sg6
F3.111094176878074
ss(I1
I-1
I1
I1
tp49
(dp50
g4
I0
sg5
F100.42277148835279
sg6
I0
ss(I0
I1
I-1
I3
tp51
(dp52
g4
I0
sg5
F23.76828515593283
sg6
I0
ss(I0
I-1
I0
I1
tp53
(dp54
g4
F3.2633537009000584
sg5
F11.454521183913931
sg6
F-999.99999999344641
ss(I0
I1
I0
I3
tp55
(dp56
g4
I0
sg5
F-1.7711298005936063
sg6
F168.16099067050354
ss(I-1
I1
I0
I2
tp57
(dp58
g4
I0
sg5
F-800
sg6
F170.12280769928554
ss(I0
I-1
I1
I1
tp59
(dp60
g4
I0
sg5
F3.9482882282588783
sg6
I0
ss(I-1
I0
I1
I2
tp61
(dp62
g4
I0
sg5
F-800
sg6
I0
ss(I0
I1
I1
I4
tp63
(dp64
g4
I0
sg5
F6.7556964425112831
sg6
I0
ss(I0
I0
I-1
I4
tp65
(dp66
g4
F-999.67999999999995
sg5
F13.984848420226413
sg6
F-20.488703886854481
ss(I-1
I0
I0
I2
tp67
(dp68
g4
F3.6236806974744713
sg5
F-999.99999999994759
sg6
F2.9780342709396619
ss(I1
I0
I-1
I3
tp69
(dp70
g4
I0
sg5
F105.20626427277702
sg6
I0
ss(I0
I0
I-1
I3
tp71
(dp72
g4
F-964.79989760000001
sg5
F-2.4650147585186044
sg6
F-2.0842947942046268
ss(I-1
I-1
I0
I3
tp73
(dp74
g4
F6.1375904703665078
sg5
F-800
sg6
F-800
ss(I-1
I0
I0
I1
tp75
(dp76
g4
F15.593334847941374
sg5
F-999.99999999344641
sg6
F5.6847191157025811
ss(I1
I-1
I0
I1
tp77
(dp78
g4
I0
sg5
F183.06968205234901
sg6
I0
ss(I0
I-1
I1
I4
tp79
(dp80
g4
I0
sg5
F95.840206805207416
sg6
F-800
ss(I-1
I0
I0
I4
tp81
(dp82
g4
F17.55975562814066
sg5
F-999.99999999999795
sg6
F7.083766613576147
ss(I1
I0
I0
I3
tp83
(dp84
g4
I0
sg5
F114.86110335893919
sg6
I0
ss(I-1
I1
I0
I4
tp85
(dp86
g4
I0
sg5
F-800
sg6
F102.65057334061137
ss(I-1
I0
I-1
I4
tp87
(dp88
g4
F-960
sg5
F-992
sg6
F14.001572680784399
ss(I0
I0
I1
I3
tp89
(dp90
g4
F121.96341621398174
sg5
F2.4000834061293261
sg6
F19.356312603930359
ss(I0
I0
I0
I1
tp91
(dp92
g4
F7.8495208096575348
sg5
F-1.7204750943067051
sg6
F8.0781035485285191
ss(I-1
I1
I0
I3
tp93
(dp94
g4
I0
sg5
F-800
sg6
F94.350145658846586
ss(I-1
I0
I-1
I2
tp95
(dp96
g4
F-800
sg5
F-800
sg6
F29.131962475420906
ss(I0
I0
I0
I4
tp97
(dp98
g4
F60.787124455032561
sg5
F-1.2904111512073786
sg6
F-1.1722745273515085
ss(I0
I-1
I-1
I3
tp99
(dp100
g4
F-960
sg5
F0.54286353088967454
sg6
F-998.39999999999998
ss(I0
I-1
I-1
I1
tp101
(dp102
g4
F-800
sg5
F86.362744660085639
sg6
F-800
ss(I-1
I1
I-1
I1
tp103
(dp104
g4
I0
sg5
F-800
sg6
I0
ss(I1
I0
I-1
I4
tp105
(dp106
g4
I0
sg5
F193.32409390945514
sg6
I0
ss(I-1
I0
I1
I3
tp107
(dp108
g4
I0
sg5
F-800
sg6
F32.415485894392404
ss(I0
I1
I1
I3
tp109
(dp110
g4
I0
sg5
F135.9933658403375
sg6
I0
ss(I-1
I0
I-1
I3
tp111
(dp112
g4
F-800
sg5
F-960
sg6
F28.243739646891001
ss(I1
I0
I-1
I1
tp113
(dp114
g4
I0
sg5
F82.737320633449897
sg6
I0
ss(I0
I0
I-1
I2
tp115
(dp116
g4
F-999.98720000000003
sg5
F8.0499739693212469
sg6
F11.496440081442458
ss(I1
I0
I-1
I2
tp117
(dp118
g4
I0
sg5
F111.7527058509497
sg6
I0
ss(I0
I-1
I-1
I2
tp119
(dp120
g4
F-992
sg5
F32.807364138442423
sg6
F-800
ss(I1
I1
I0
I3
tp121
(dp122
g4
I0
sg5
F151.10877296226914
sg6
I0
ss(I1
I1
I0
I2
tp123
(dp124
g4
I0
sg5
F113.99042326536315
sg6
I0
ss(I0
I0
I-1
I1
tp125
(dp126
g4
F-998.39999999999998
sg5
F20.763166049067848
sg6
F-1.3032922986538429
ss(I-1
I1
I0
I1
tp127
(dp128
g4
I0
sg5
F-800
sg6
F84.284269729352317
ss(I0
I1
I-1
I1
tp129
(dp130
g4
I0
sg5
F4.6459285942730535
sg6
I0
ss(I1
I0
I0
I4
tp131
(dp132
g4
I0
sg5
F124.08604247772672
sg6
F-6.2084085987138273
ss(I1
I-1
I0
I2
tp133
(dp134
g4
I0
sg5
F111.04999725795831
sg6
I0
ss(I1
I0
I0
I1
tp135
(dp136
g4
F4.2830191733850995
sg5
F192.33351958122546
sg6
F73.166767799204777
ss(I0
I-1
I0
I4
tp137
(dp138
g4
F7.7574453627097677
sg5
F8.0595989925572731
sg6
F-999.99999996723204
ss(I0
I1
I0
I4
tp139
(dp140
g4
I0
sg5
F-1.5442046105708263
sg6
F247.82738521761271
ss(I-1
I-1
I0
I1
tp141
(dp142
g4
F1.60154297381004
sg5
F-800
sg6
F-800
ss(I0
I-1
I0
I3
tp143
(dp144
g4
F-3.7420161745412766
sg5
F-3.323051269132983
sg6
F-999.99999999973784
ss(I0
I1
I0
I1
tp145
(dp146
g4
F5.4354636746835752
sg5
F57.389400550426416
sg6
F136.06968483579692
ss(I0
I0
I0
I3
tp147
(dp148
g4
F10.421679858989295
sg5
F-4.075800284853397
sg6
F-3.2329322839682044
ss(I0
I1
I-1
I2
tp149
(dp150
g4
I0
sg5
F12.438184282803787
sg6
I0
ss(I1
I-1
I-1
I3
tp151
(dp152
g4
I0
sg5
F102.67972128633458
sg6
I0
ss(I0
I1
I0
I2
tp153
(dp154
g4
F5.2631901249410804
sg5
F25.426086735574966
sg6
F200.91273993770326
ss(I-1
I-1
I-1
I4
tp155
(dp156
g4
F-800
sg5
F-960
sg6
F-800
ss(I1
I-1
I-1
I2
tp157
(dp158
g4
I0
sg5
F88.076178703438401
sg6
I0
ss.